target datalayout = "e-m:e-p270:32:32-p271:32:32-p272:64:64-i64:64-i128:128-f80:128-n8:16:32:64-S128"
target triple = "x86_64-pc-linux-gnu"

; Function Attrs: nounwind uwtable
define internal void @noscale(ptr noundef %0, ptr noundef %1, ptr noundef %2, i32 noundef %3) #0 {
  %5 = alloca ptr, align 8
  %6 = alloca ptr, align 8
  %7 = alloca ptr, align 8
  %8 = alloca i32, align 4
  store ptr %0, ptr %5, align 8, !tbaa !3
  store ptr %1, ptr %6, align 8, !tbaa !55
  store ptr %2, ptr %7, align 8, !tbaa !57
  store i32 %3, ptr %8, align 4, !tbaa !50
  br label %9

9:                                                ; preds = %16, %4
  %10 = load ptr, ptr %6, align 8, !tbaa !55
  %11 = getelementptr inbounds nuw i32, ptr %10, i32 1
  store ptr %11, ptr %6, align 8, !tbaa !55
  %12 = load i32, ptr %10, align 4, !tbaa !50
  %13 = trunc i32 %12 to i8
  %14 = load ptr, ptr %7, align 8, !tbaa !57
  %15 = getelementptr inbounds nuw i8, ptr %14, i32 1
  store ptr %15, ptr %7, align 8, !tbaa !57
  store i8 %13, ptr %14, align 1, !tbaa !36
  br label %16

16:                                               ; preds = %9
  %17 = load i32, ptr %8, align 4, !tbaa !50
  %18 = add i32 %17, -1
  store i32 %18, ptr %8, align 4, !tbaa !50
  %19 = icmp ne i32 %18, 0
  br i1 %19, label %9, label %20, !llvm.loop !59

20:                                               ; preds = %16
  ret void
}