; Function Attrs: nofree norecurse nosync nounwind memory(argmem: readwrite) uwtable
define internal void @noscale(ptr readnone captures(none) %0, ptr noundef readonly captures(none) %1, ptr noundef writeonly captures(none) %2, i32 noundef %3) #2 {
  br label %5

5:                                                ; preds = %5, %4
  %.03 = phi ptr [ %1, %4 ], [ %6, %5 ]
  %.02 = phi ptr [ %2, %4 ], [ %9, %5 ]
  %.0 = phi i32 [ %3, %4 ], [ %10, %5 ]
  %6 = getelementptr inbounds nuw i8, ptr %.03, i64 4
  %7 = load i32, ptr %.03, align 4, !tbaa !52
  %8 = trunc i32 %7 to i8
  %9 = getelementptr inbounds nuw i8, ptr %.02, i64 1
  store i8 %8, ptr %.02, align 1, !tbaa !34
  %10 = add i32 %.0, -1
  %.not = icmp eq i32 %10, 0
  br i1 %.not, label %11, label %5, !llvm.loop !55

11:                                               ; preds = %5
  ret void
}